TN:
SF:/mnt/c/Users/KIIT/Desktop/Assignment-5/cpp_project/main.cpp
FN:1,_Z3addii
FNDA:3,_Z3addii
FN:5,_Z8subtractii
FNDA:2,_Z8subtractii
FN:9,_Z8multiplyii
FNDA:2,_Z8multiplyii
FN:13,_Z6divideii
FNDA:2,_Z6divideii
FN:18,_Z9factoriali
FNDA:8,_Z9factoriali
DA:1,3
DA:2,3
DA:5,2
DA:6,2
DA:9,2
DA:10,2
DA:13,2
DA:14,2
DA:15,1
DA:18,8
DA:19,8
DA:20,7
DA:21,4
end_of_record
SF:/mnt/c/Users/KIIT/Desktop/Assignment-5/tests/test_main.cpp
FN:4,_ZN23MathTests_Addition_Test8TestBodyEv
FNDA:1,_ZN23MathTests_Addition_Test8TestBodyEv
FN:4,_ZN23MathTests_Addition_TestC2Ev
FNDA:1,_ZN23MathTests_Addition_TestC2Ev
FN:10,_ZN26MathTests_Subtraction_Test8TestBodyEv
FNDA:1,_ZN26MathTests_Subtraction_Test8TestBodyEv
FN:10,_ZN26MathTests_Subtraction_TestC2Ev
FNDA:1,_ZN26MathTests_Subtraction_TestC2Ev
FN:15,_ZN29MathTests_Multiplication_Test8TestBodyEv
FNDA:1,_ZN29MathTests_Multiplication_Test8TestBodyEv
FN:15,_ZN29MathTests_Multiplication_TestC2Ev
FNDA:1,_ZN29MathTests_Multiplication_TestC2Ev
FN:20,_ZN23MathTests_Division_Test8TestBodyEv
FNDA:1,_ZN23MathTests_Division_Test8TestBodyEv
FN:20,_ZN23MathTests_Division_TestC2Ev
FNDA:1,_ZN23MathTests_Division_TestC2Ev
FN:25,_ZN24MathTests_Factorial_Test8TestBodyEv
FNDA:1,_ZN24MathTests_Factorial_Test8TestBodyEv
FN:25,_ZN24MathTests_Factorial_TestC2Ev
FNDA:1,_ZN24MathTests_Factorial_TestC2Ev
FN:32,main
FNDA:1,main
DA:4,1
DA:5,1
DA:6,1
DA:7,1
DA:8,1
DA:4,1
DA:10,1
DA:11,1
DA:12,1
DA:13,1
DA:10,1
DA:15,1
DA:16,1
DA:17,1
DA:18,1
DA:15,1
DA:20,1
DA:21,1
DA:22,1
DA:23,1
DA:20,1
DA:25,1
DA:26,1
DA:27,1
DA:28,1
DA:29,1
DA:30,1
DA:25,1
DA:32,1
DA:33,1
DA:34,1
end_of_record
